; Function Attrs: mustprogress nofree norecurse nosync nounwind willreturn memory(write, argmem: readwrite, inaccessiblemem: none) uwtable
define void @text_window_set_close_cb(ptr noundef readonly %0, ptr noundef %1, ptr noundef %2) local_unnamed_addr #10 {
  %.not = icmp eq ptr %0, null
  br i1 %.not, label %8, label %4

4:                                                ; preds = %3
  %5 = load ptr, ptr %0, align 8
  %6 = getelementptr inbounds i8, ptr %5, i64 80
  store ptr %1, ptr %6, align 8
  %7 = getelementptr inbounds i8, ptr %5, i64 88
  store ptr %2, ptr %7, align 8
  br label %8

8:                                                ; preds = %4, %3
  ret void
}